; Function Attrs: mustprogress nounwind uwtable
define dso_local noundef zeroext i1 @_ZNK4llvm23AArch64RegisterBankInfo13onlyDefinesFPERKNS_12MachineInstrERKNS_19MachineRegisterInfoERKNS_18TargetRegisterInfoEj(ptr noundef nonnull align 8 dereferenceable(168) %0, ptr noundef nonnull align 8 dereferenceable(70) %1, ptr noundef nonnull align 8 dereferenceable(512) %2, ptr noundef nonnull align 8 dereferenceable(308) %3, i32 noundef %4) local_unnamed_addr #0 align 2 {
  %6 = getelementptr inbounds nuw i8, ptr %1, i64 68
  %7 = load i16, ptr %6, align 4
  switch i16 %7, label %15 [
    i16 768, label %17
    i16 195, label %17
    i16 196, label %17
    i16 228, label %17
    i16 227, label %17
    i16 74, label %17
    i16 75, label %17
    i16 123, label %8
  ]

8:                                                ; preds = %5
  %9 = tail call noundef i32 @_ZNK4llvm12MachineInstr18getNumExplicitDefsEv(ptr noundef nonnull align 8 dereferenceable(70) %1) #15
  %10 = getelementptr inbounds nuw i8, ptr %1, i64 32
  %11 = load ptr, ptr %10, align 8
  %12 = zext i32 %9 to i64
  %13 = getelementptr inbounds %"class.llvm::MachineOperand", ptr %11, i64 %12, i32 3
  %14 = load i32, ptr %13, align 8
  %.off = add i32 %14, -606
  %switch = icmp ult i32 %.off, 12
  br i1 %switch, label %17, label %15

15:                                               ; preds = %8, %5
  %16 = tail call noundef zeroext i1 @_ZNK4llvm23AArch64RegisterBankInfo16hasFPConstraintsERKNS_12MachineInstrERKNS_19MachineRegisterInfoERKNS_18TargetRegisterInfoEj(ptr noundef nonnull align 8 dereferenceable(168) %0, ptr noundef nonnull align 8 dereferenceable(70) %1, ptr noundef nonnull align 8 dereferenceable(512) %2, ptr noundef nonnull align 8 dereferenceable(308) %3, i32 noundef %4)
  br label %17

17:                                               ; preds = %8, %5, %5, %5, %5, %5, %5, %5, %15
  %.0 = phi i1 [ %16, %15 ], [ true, %5 ], [ true, %5 ], [ true, %5 ], [ true, %5 ], [ true, %5 ], [ true, %5 ], [ true, %5 ], [ true, %8 ]
  ret i1 %.0
}